; Function Attrs: nounwind uwtable
define internal zeroext i1 @fd_close(ptr noundef %0) #0 {
  %2 = getelementptr inbounds nuw i8, ptr %0, i64 4
  %3 = load i8, ptr %2, align 4, !range !5, !noundef !6
  %4 = trunc nuw i8 %3 to i1
  br i1 %4, label %5, label %14

5:                                                ; preds = %1
  %6 = load i32, ptr %0, align 4
  %7 = tail call i32 @close(i32 noundef %6) #18
  %8 = icmp slt i32 %7, 0
  br i1 %8, label %9, label %14

9:                                                ; preds = %5
  %10 = tail call ptr @__errno_location() #19
  %11 = load i32, ptr %10, align 4
  %12 = tail call ptr @strerror(i32 noundef %11) #18
  %13 = tail call zeroext i1 (ptr, ...) @SDL_SetError_REAL(ptr noundef nonnull @.str.24, ptr noundef %12) #18
  br label %14

14:                                               ; preds = %5, %9, %1
  %.0 = phi i1 [ %13, %9 ], [ true, %5 ], [ true, %1 ]
  tail call void @SDL_free_REAL(ptr noundef nonnull %0) #18
  ret i1 %.0
}